target datalayout = "e-m:e-p270:32:32-p271:32:32-p272:64:64-i64:64-i128:128-f80:128-n8:16:32:64-S128"
target triple = "x86_64-pc-linux-gnu"

%"class.llvm::GlobalValue" = type { %"class.llvm::Constant", ptr, i32, i32, ptr }
%"class.llvm::Constant" = type { %"class.llvm::User" }
%"class.llvm::User" = type { %"class.llvm::Value" }
%"class.llvm::Value" = type { i8, i8, i16, i32, ptr, ptr }

; Function Attrs: mustprogress nounwind uwtable
define linkonce_odr hidden void @_ZN4llvm11GlobalValue26setGlobalValueSubClassDataEj(ptr noundef nonnull align 8 dereferenceable(48) %0, i32 noundef %1) #0 comdat align 2 {
  %3 = alloca ptr, align 8
  %4 = alloca i32, align 4
  store ptr %0, ptr %3, align 8
  store i32 %1, ptr %4, align 4
  %5 = load ptr, ptr %3, align 8
  %6 = load i32, ptr %4, align 4
  %7 = getelementptr inbounds nuw %"class.llvm::GlobalValue", ptr %5, i32 0, i32 2
  %8 = load i32, ptr %7, align 8
  %9 = and i32 %6, 32767
  %10 = shl i32 %9, 17
  %11 = and i32 %8, 131071
  %12 = or i32 %11, %10
  store i32 %12, ptr %7, align 8
  ret void
}

; Function Attrs: mustprogress nounwind uwtable
define linkonce_odr hidden noundef i32 @_ZNK4llvm11GlobalValue26getGlobalValueSubClassDataEv(ptr noundef nonnull align 8 dereferenceable(48) %0) #0 comdat align 2 {
  %2 = alloca ptr, align 8
  store ptr %0, ptr %2, align 8
  %3 = load ptr, ptr %2, align 8
  %4 = getelementptr inbounds nuw %"class.llvm::GlobalValue", ptr %3, i32 0, i32 2
  %5 = load i32, ptr %4, align 8
  %6 = lshr i32 %5, 17
  ret i32 %6
}

; Function Attrs: mustprogress nounwind uwtable
define dso_local void @_ZN4llvm14GlobalVariable12setCodeModelENS_9CodeModel5ModelE(ptr noundef nonnull align 8 dereferenceable(81) %0, i32 noundef %1) #0 align 2 {
  %3 = alloca ptr, align 8
  %4 = alloca i32, align 4
  %5 = alloca i32, align 4
  %6 = alloca i32, align 4
  %7 = alloca i32, align 4
  store ptr %0, ptr %3, align 8
  store i32 %1, ptr %4, align 4
  %8 = load ptr, ptr %3, align 8
  %9 = load i32, ptr %4, align 4
  %10 = add i32 %9, 1
  store i32 %10, ptr %5, align 4
  %11 = call noundef i32 @_ZNK4llvm11GlobalValue26getGlobalValueSubClassDataEv(ptr noundef nonnull align 8 dereferenceable(48) %8)
  store i32 %11, ptr %6, align 4
  %12 = load i32, ptr %6, align 4
  %13 = and i32 %12, -449
  %14 = load i32, ptr %5, align 4
  %15 = shl i32 %14, 6
  %16 = or i32 %13, %15
  store i32 %16, ptr %7, align 4
  %17 = load i32, ptr %7, align 4
  call void @_ZN4llvm11GlobalValue26setGlobalValueSubClassDataEj(ptr noundef nonnull align 8 dereferenceable(48) %8, i32 noundef %17)
  ret void
}