; Function Attrs: mustprogress nofree norecurse nosync nounwind willreturn memory(argmem: readwrite) uwtable
define dso_local void @_ZN4llvm14GlobalVariable12setCodeModelENS_9CodeModel5ModelE(ptr nocapture noundef nonnull align 8 dereferenceable(81) %0, i32 noundef %1) local_unnamed_addr #5 align 2 {
  %3 = getelementptr inbounds nuw i8, ptr %0, i64 32
  %4 = load i32, ptr %3, align 8
  %5 = shl i32 %1, 23
  %6 = add i32 %5, 8388608
  %7 = and i32 %4, -58720257
  %8 = or i32 %7, %6
  store i32 %8, ptr %3, align 8
  ret void
}